; Function Attrs: nounwind uwtable
define internal i32 @nbiof_gets(ptr noundef readonly captures(none) %0, ptr noundef %1, i32 noundef %2) #2 {
  %4 = getelementptr inbounds nuw i8, ptr %0, i64 72
  %5 = load ptr, ptr %4, align 8, !tbaa !3
  %6 = icmp eq ptr %5, null
  br i1 %6, label %9, label %7

7:                                                ; preds = %3
  %8 = tail call i32 @BIO_gets(ptr noundef nonnull %5, ptr noundef %1, i32 noundef %2) #5
  br label %9

9:                                                ; preds = %3, %7
  %.0 = phi i32 [ %8, %7 ], [ 0, %3 ]
  ret i32 %.0
}